target datalayout = "e-m:e-p270:32:32-p271:32:32-p272:64:64-i64:64-i128:128-f80:128-n8:16:32:64-S128"
target triple = "x86_64-pc-linux-gnu"

%"class.icu_77::RBBITableBuilder" = type <{ ptr, ptr, ptr, ptr, ptr, ptr, i32, [4 x i8] }>
%"class.icu_77::UVector" = type { %"class.icu_77::UObject", i32, i32, ptr, ptr, ptr }
%"class.icu_77::UObject" = type { ptr }
%"class.icu_77::RBBIRuleBuilder" = type { ptr, ptr, ptr, ptr, ptr, %"class.icu_77::UnicodeString", ptr, ptr, ptr, ptr, ptr, ptr, i8, i8, ptr, ptr, ptr, ptr }
%"class.icu_77::UnicodeString" = type { %"class.icu_77::Replaceable", %"union.icu_77::UnicodeString::StackBufferOrFields" }
%"class.icu_77::Replaceable" = type { %"class.icu_77::UObject" }
%"union.icu_77::UnicodeString::StackBufferOrFields" = type { %struct.anon.0, [32 x i8] }
%struct.anon.0 = type { i16, i32, i32, ptr }

; Function Attrs: mustprogress uwtable
define noundef zeroext i1 @_ZNK6icu_7716RBBITableBuilder16use8BitsForTableEv(ptr noundef nonnull align 8 dereferenceable(52) %0) #0 align 2 {
  %2 = alloca ptr, align 8
  store ptr %0, ptr %2, align 8, !tbaa !3
  %3 = load ptr, ptr %2, align 8
  %4 = getelementptr inbounds nuw %"class.icu_77::RBBITableBuilder", ptr %3, i32 0, i32 3
  %5 = load ptr, ptr %4, align 8, !tbaa !20
  %6 = call noundef i32 @_ZNK6icu_777UVector4sizeEv(ptr noundef nonnull align 8 dereferenceable(40) %5)
  %7 = icmp sle i32 %6, 255
  ret i1 %7
}

; Function Attrs: inlinehint mustprogress nounwind uwtable
define linkonce_odr noundef i32 @_ZNK6icu_777UVector4sizeEv(ptr noundef nonnull align 8 dereferenceable(40) %0) #1 comdat align 2 {
  %2 = alloca ptr, align 8
  store ptr %0, ptr %2, align 8, !tbaa !31
  %3 = load ptr, ptr %2, align 8
  %4 = getelementptr inbounds nuw %"class.icu_77::UVector", ptr %3, i32 0, i32 1
  %5 = load i32, ptr %4, align 8, !tbaa !32
  ret i32 %5
}

; Function Attrs: mustprogress uwtable
define noundef i32 @_ZNK6icu_7716RBBITableBuilder12getTableSizeEv(ptr noundef nonnull align 8 dereferenceable(52) %0) #0 align 2 {
  %2 = alloca i32, align 4
  %3 = alloca ptr, align 8
  %4 = alloca i32, align 4
  %5 = alloca i32, align 4
  %6 = alloca i32, align 4
  %7 = alloca i32, align 4
  %8 = alloca i32, align 4
  store ptr %0, ptr %3, align 8, !tbaa !3
  %9 = load ptr, ptr %3, align 8
  call void @llvm.lifetime.start.p0(i64 4, ptr %4) #11
  store i32 0, ptr %4, align 4, !tbaa !26
  call void @llvm.lifetime.start.p0(i64 4, ptr %5) #11
  call void @llvm.lifetime.start.p0(i64 4, ptr %6) #11
  call void @llvm.lifetime.start.p0(i64 4, ptr %7) #11
  %10 = getelementptr inbounds nuw %"class.icu_77::RBBITableBuilder", ptr %9, i32 0, i32 1
  %11 = load ptr, ptr %10, align 8, !tbaa !36
  %12 = load ptr, ptr %11, align 8, !tbaa !37
  %13 = icmp eq ptr %12, null
  br i1 %13, label %14, label %15

14:                                               ; preds = %1
  store i32 0, ptr %2, align 4
  store i32 1, ptr %8, align 4
  br label %44

15:                                               ; preds = %1
  store i32 20, ptr %4, align 4, !tbaa !26
  %16 = getelementptr inbounds nuw %"class.icu_77::RBBITableBuilder", ptr %9, i32 0, i32 3
  %17 = load ptr, ptr %16, align 8, !tbaa !20
  %18 = call noundef i32 @_ZNK6icu_777UVector4sizeEv(ptr noundef nonnull align 8 dereferenceable(40) %17)
  store i32 %18, ptr %5, align 4, !tbaa !26
  %19 = getelementptr inbounds nuw %"class.icu_77::RBBITableBuilder", ptr %9, i32 0, i32 0
  %20 = load ptr, ptr %19, align 8, !tbaa !14
  %21 = getelementptr inbounds nuw %"class.icu_77::RBBIRuleBuilder", ptr %20, i32 0, i32 14
  %22 = load ptr, ptr %21, align 8, !tbaa !39
  %23 = call noundef i32 @_ZNK6icu_7714RBBISetBuilder20getNumCharCategoriesEv(ptr noundef nonnull align 8 dereferenceable(53) %22)
  store i32 %23, ptr %6, align 4, !tbaa !26
  %24 = call noundef zeroext i1 @_ZNK6icu_7716RBBITableBuilder16use8BitsForTableEv(ptr noundef nonnull align 8 dereferenceable(52) %9)
  br i1 %24, label %25, label %31

25:                                               ; preds = %15
  %26 = load i32, ptr %6, align 4, !tbaa !26
  %27 = sext i32 %26 to i64
  %28 = mul i64 1, %27
  %29 = add i64 3, %28
  %30 = trunc i64 %29 to i32
  store i32 %30, ptr %7, align 4, !tbaa !26
  br label %37

31:                                               ; preds = %15
  %32 = load i32, ptr %6, align 4, !tbaa !26
  %33 = sext i32 %32 to i64
  %34 = mul i64 2, %33
  %35 = add i64 6, %34
  %36 = trunc i64 %35 to i32
  store i32 %36, ptr %7, align 4, !tbaa !26
  br label %37

37:                                               ; preds = %31, %25
  %38 = load i32, ptr %5, align 4, !tbaa !26
  %39 = load i32, ptr %7, align 4, !tbaa !26
  %40 = mul nsw i32 %38, %39
  %41 = load i32, ptr %4, align 4, !tbaa !26
  %42 = add nsw i32 %41, %40
  store i32 %42, ptr %4, align 4, !tbaa !26
  %43 = load i32, ptr %4, align 4, !tbaa !26
  store i32 %43, ptr %2, align 4
  store i32 1, ptr %8, align 4
  br label %44

44:                                               ; preds = %37, %14
  call void @llvm.lifetime.end.p0(i64 4, ptr %7) #11
  call void @llvm.lifetime.end.p0(i64 4, ptr %6) #11
  call void @llvm.lifetime.end.p0(i64 4, ptr %5) #11
  call void @llvm.lifetime.end.p0(i64 4, ptr %4) #11
  %45 = load i32, ptr %2, align 4
  ret i32 %45
}