; Function Attrs: mustprogress uwtable
define noundef range(i32 -2147483628, -2147483648) i32 @_ZNK6icu_7716RBBITableBuilder12getTableSizeEv(ptr noundef nonnull readonly align 8 captures(none) dereferenceable(52) %0) local_unnamed_addr #0 align 2 {
  %2 = getelementptr inbounds nuw i8, ptr %0, i64 8
  %3 = load ptr, ptr %2, align 8, !tbaa !30
  %4 = load ptr, ptr %3, align 8, !tbaa !31
  %5 = icmp eq ptr %4, null
  br i1 %5, label %24, label %6

6:                                                ; preds = %1
  %7 = getelementptr inbounds nuw i8, ptr %0, i64 24
  %8 = load ptr, ptr %7, align 8, !tbaa !19
  %9 = getelementptr inbounds nuw i8, ptr %8, i64 8
  %10 = load i32, ptr %9, align 8, !tbaa !20
  %11 = load ptr, ptr %0, align 8, !tbaa !3
  %12 = getelementptr inbounds nuw i8, ptr %11, i64 160
  %13 = load ptr, ptr %12, align 8, !tbaa !33
  %14 = tail call noundef i32 @_ZNK6icu_7714RBBISetBuilder20getNumCharCategoriesEv(ptr noundef nonnull align 8 dereferenceable(53) %13)
  %15 = load ptr, ptr %7, align 8, !tbaa !19
  %16 = getelementptr inbounds nuw i8, ptr %15, i64 8
  %17 = load i32, ptr %16, align 8, !tbaa !20
  %18 = icmp slt i32 %17, 256
  %19 = add i32 %14, 3
  %20 = shl i32 %14, 1
  %21 = add i32 %20, 6
  %.0 = select i1 %18, i32 %19, i32 %21
  %22 = mul nsw i32 %.0, %10
  %23 = add nsw i32 %22, 20
  br label %24

24:                                               ; preds = %1, %6
  %.07 = phi i32 [ %23, %6 ], [ 0, %1 ]
  ret i32 %.07
}